target datalayout = "e-m:e-p270:32:32-p271:32:32-p272:64:64-i64:64-i128:128-f80:128-n8:16:32:64-S128"
target triple = "x86_64-pc-linux-gnu"

@.str.24 = private unnamed_addr constant [25 x i8] c"%s is already registered\00", align 1

; Function Attrs: nounwind sspstrong uwtable
define internal i32 @register_init_ext(ptr noundef %0, ptr noundef %1, i64 noundef %2, i32 noundef %3) #0 {
  %5 = alloca ptr, align 8
  %6 = alloca ptr, align 8
  %7 = alloca i64, align 8
  %8 = alloca i32, align 4
  %9 = alloca ptr, align 8
  store ptr %0, ptr %5, align 8, !tbaa !48
  store ptr %1, ptr %6, align 8, !tbaa !48
  store i64 %2, ptr %7, align 8, !tbaa !12
  store i32 %3, ptr %8, align 4, !tbaa !39
  call void @llvm.lifetime.start.p0(i64 8, ptr %9) #8
  %10 = load ptr, ptr %5, align 8, !tbaa !48
  %11 = load i64, ptr %10, align 8, !tbaa !12
  %12 = inttoptr i64 %11 to ptr
  store ptr %12, ptr %9, align 8, !tbaa !43
  %13 = load i32, ptr %8, align 4, !tbaa !39
  %14 = icmp ne i32 %13, 0
  br i1 %14, label %15, label %17

15:                                               ; preds = %4
  %16 = load ptr, ptr %9, align 8, !tbaa !43
  call void (ptr, ...) @rb_warn(ptr noundef @.str.24, ptr noundef %16) #33
  br label %20

17:                                               ; preds = %4
  %18 = load i64, ptr %7, align 8, !tbaa !12
  %19 = load ptr, ptr %6, align 8, !tbaa !48
  store i64 %18, ptr %19, align 8, !tbaa !12
  br label %20

20:                                               ; preds = %17, %15
  call void @llvm.lifetime.end.p0(i64 8, ptr %9) #8
  ret i32 0
}