; Function Attrs: nounwind sspstrong uwtable
define internal noundef i32 @register_init_ext(ptr noundef readonly captures(none) %0, ptr noundef writeonly captures(none) %1, i64 noundef %2, i32 noundef %3) #0 {
  %.not = icmp eq i32 %3, 0
  br i1 %.not, label %8, label %5

5:                                                ; preds = %4
  %6 = load i64, ptr %0, align 8, !tbaa !42
  %7 = inttoptr i64 %6 to ptr
  tail call void (ptr, ...) @rb_warn(ptr noundef nonnull @.str.24, ptr noundef %7) #27
  br label %9

8:                                                ; preds = %4
  store i64 %2, ptr %1, align 8, !tbaa !42
  br label %9

9:                                                ; preds = %8, %5
  ret i32 0
}